target datalayout = "e-m:e-p270:32:32-p271:32:32-p272:64:64-i64:64-i128:128-f80:128-n8:16:32:64-S128"
target triple = "x86_64-pc-linux-gnu"

%struct.lua_Page = type { ptr, ptr, ptr, ptr, i32, i32, ptr, i32, i32, %union.anon.0 }
%union.anon.0 = type { double }

; Function Attrs: mustprogress nounwind uwtable
define hidden void @_Z16luaM_getpageinfoP8lua_PagePiS1_S1_S1_(ptr noundef %0, ptr noundef %1, ptr noundef %2, ptr noundef %3, ptr noundef %4) #1 {
  %6 = alloca ptr, align 8
  %7 = alloca ptr, align 8
  %8 = alloca ptr, align 8
  %9 = alloca ptr, align 8
  %10 = alloca ptr, align 8
  store ptr %0, ptr %6, align 8, !tbaa !54
  store ptr %1, ptr %7, align 8, !tbaa !70
  store ptr %2, ptr %8, align 8, !tbaa !70
  store ptr %3, ptr %9, align 8, !tbaa !70
  store ptr %4, ptr %10, align 8, !tbaa !70
  %11 = load ptr, ptr %6, align 8, !tbaa !54
  %12 = getelementptr inbounds nuw %struct.lua_Page, ptr %11, i32 0, i32 4
  %13 = load i32, ptr %12, align 8, !tbaa !66
  %14 = sext i32 %13 to i64
  %15 = sub i64 %14, 56
  %16 = load ptr, ptr %6, align 8, !tbaa !54
  %17 = getelementptr inbounds nuw %struct.lua_Page, ptr %16, i32 0, i32 5
  %18 = load i32, ptr %17, align 4, !tbaa !57
  %19 = sext i32 %18 to i64
  %20 = udiv i64 %15, %19
  %21 = trunc i64 %20 to i32
  %22 = load ptr, ptr %7, align 8, !tbaa !70
  store i32 %21, ptr %22, align 4, !tbaa !12
  %23 = load ptr, ptr %6, align 8, !tbaa !54
  %24 = getelementptr inbounds nuw %struct.lua_Page, ptr %23, i32 0, i32 8
  %25 = load i32, ptr %24, align 4, !tbaa !58
  %26 = load ptr, ptr %8, align 8, !tbaa !70
  store i32 %25, ptr %26, align 4, !tbaa !12
  %27 = load ptr, ptr %6, align 8, !tbaa !54
  %28 = getelementptr inbounds nuw %struct.lua_Page, ptr %27, i32 0, i32 5
  %29 = load i32, ptr %28, align 4, !tbaa !57
  %30 = load ptr, ptr %9, align 8, !tbaa !70
  store i32 %29, ptr %30, align 4, !tbaa !12
  %31 = load ptr, ptr %6, align 8, !tbaa !54
  %32 = getelementptr inbounds nuw %struct.lua_Page, ptr %31, i32 0, i32 4
  %33 = load i32, ptr %32, align 8, !tbaa !66
  %34 = load ptr, ptr %10, align 8, !tbaa !70
  store i32 %33, ptr %34, align 4, !tbaa !12
  ret void
}