; Function Attrs: mustprogress nofree norecurse nosync nounwind willreturn memory(argmem: readwrite) uwtable
define hidden void @_Z16luaM_getpageinfoP8lua_PagePiS1_S1_S1_(ptr noundef readonly captures(none) %0, ptr noundef writeonly captures(none) initializes((0, 4)) %1, ptr noundef writeonly captures(none) initializes((0, 4)) %2, ptr noundef writeonly captures(none) initializes((0, 4)) %3, ptr noundef writeonly captures(none) initializes((0, 4)) %4) local_unnamed_addr #5 {
  %6 = getelementptr inbounds nuw i8, ptr %0, i64 32
  %7 = load i32, ptr %6, align 8, !tbaa !49
  %8 = sext i32 %7 to i64
  %9 = add nsw i64 %8, -56
  %10 = getelementptr inbounds nuw i8, ptr %0, i64 36
  %11 = load i32, ptr %10, align 4, !tbaa !24
  %12 = sext i32 %11 to i64
  %13 = udiv i64 %9, %12
  %14 = trunc i64 %13 to i32
  store i32 %14, ptr %1, align 4, !tbaa !54
  %15 = getelementptr inbounds nuw i8, ptr %0, i64 52
  %16 = load i32, ptr %15, align 4, !tbaa !25
  store i32 %16, ptr %2, align 4, !tbaa !54
  %17 = load i32, ptr %10, align 4, !tbaa !24
  store i32 %17, ptr %3, align 4, !tbaa !54
  %18 = load i32, ptr %6, align 8, !tbaa !49
  store i32 %18, ptr %4, align 4, !tbaa !54
  ret void
}